(dp0
S'/home/naresh/cse592-project/trunk/comics/questionablecontent.txt'
p1
(dp2
S'http://crfh.net/d/19990101.html'
p3
F29.820264346954115
sS'http://questionablecontent.net/view.php?comic=1#'
p4
F88.91185461820022
sS'http://www.gpf-comics.com/d/19981106.html'
p5
F16.11570874853677
sS'http://dieselsweeties.com/archive.php?s=001'
p6
F16.159770645410603
sS'http://imgs.xkcd.com/comics/island_color.jpg'
p7
F16.23285200444808
sS'http://www.goats.com/archive/000113.html'
p8
F20.935671829127486
sS'http://www.gpf-comics.com/d/19981102.html'
p9
F26.579080355660274
sS'http://imgs.xkcd.com/comics/ferret.jpg'
p10
F27.37941203892519
sS'http://imgs.xkcd.com/comics/monty_python.jpg'
p11
F24.713889688697254
sS'http://imgs.xkcd.com/comics/barrel_part_4.jpg'
p12
F28.316387540241887
sS'http://questionablecontent.net/view.php?comic=001#'
p13
F91.70586531826616
sS'http://imgs.xkcd.com/comics/landscape_cropped_(1).jpg'
p14
F26.41761280278861
sS'http://sheldoncomics.com/archive/011208.html'
p15
F14.747670603268356
sS'http://questionablecontent.net/view.php?comic=01'
p16
F95.2093198724007
sS'http://imgs.xkcd.com/comics/donner.jpg'
p17
F25.253475142488444
sS'http://www.goats.com/archive/000107.html'
p18
F33.561842049656946
sS'http://questionablecontent.net/view.php?comic1'
p19
F98.57564724762608
sS'http://imgs.xkcd.com/comics/poisson.jpg'
p20
F22.850922344044584
sS'http://nukees.com/d/19970206.html'
p21
F24.35286276246649
sS'http://www.gocomics.com/calvinandhobbes/1985/11/19'
p22
F26.51479469520396
sS'http://crfh.net/d/19990106.html'
p23
F29.566107562167392
sS'http://imgs.xkcd.com/comics/george_clinton.jpg'
p24
F29.190214983633382
sS'http://www.gpf-comics.com/d/19981107.html'
p25
F20.84136292909623
sS'http://www.gpf-comics.com/d/19981105.html'
p26
F24.828780735861084
sS'http://www.goats.com/archive/000114.html'
p27
F22.634527945339816
sS'http://sheldoncomics.com/archive/011207.html'
p28
F26.55168786345507
sS'http://sheldoncomics.com/archive/011206.html'
p29
F17.067024233286922
sS'http://dieselsweeties.com/archive.php'
p30
F16.90809405262203
sS'http://imgs.xkcd.com/comics/meat_cereals.jpg'
p31
F11.03622826425421
sS'http://imgs.xkcd.com/comics/girl_sleeping_noline_(1).jpg'
p32
F18.35781152884242
sS'http://imgs.xkcd.com/comics/godel_escher_kurthalsey.jpg'
p33
F29.65511631292052
sS'http://nukees.com/d/19970121.html'
p34
F24.541032262647608
sS'http://nukees.com/d/19970218.html'
p35
F28.21730580101591
sS'http://questionablecontent.net./view.php?comic=1'
p36
F109.30207679798505
sS'http://nukees.com/d/19970128.html'
p37
F26.666682894135768
sS'http://imgs.xkcd.com/comics/canyon_small.jpg'
p38
F28.245077059021252
sS'http://questionablecontent.net./view.php?comic=2'
p39
F165.13791348157218
sS'http://imgs.xkcd.com/comics/firefly.jpg'
p40
F22.746362364457784
sS'http://www.gocomics.com/calvinandhobbes/1985/11/18'
p41
F24.29882606416167
sS'http://www.gocomics.com/calvinandhobbes/1985/11/20'
p42
F38.81729776373318
sS'http://www.gocomics.com/calvinandhobbes/1985/11/21'
p43
F24.84172290814971
sS'http://www.gocomics.com/calvinandhobbes/1985/11/22'
p44
F25.073942872952696
sS'http://www.gocomics.com/calvinandhobbes/1985/11/23'
p45
F36.85275506471971
sS'http://www.gocomics.com/calvinandhobbes/1985/11/24'
p46
F24.830396217498954
sS'http://www.gocomics.com/calvinandhobbes/1985/11/25'
p47
F21.86187300103666
sS'http://www.gocomics.com/calvinandhobbes/1985/11/26'
p48
F20.584024105885092
sS'http://www.gocomics.com/calvinandhobbes/1985/11/27'
p49
F15.825722292322377
sS'http://crfh.net/d/19990111.html'
p50
F24.327636031876626
sS'http://www.goats.com/archive/000110.html'
p51
F21.849307848807083
sS'http://imgs.xkcd.com/comics/barrel_whirlpool.jpg'
p52
F22.206195950378735
sS'http://www.goats.com/archive/000105.html'
p53
F26.1963181155945
sS'http://www.goats.com/archive/000111.html'
p54
F30.205323574056113
sS'http://imgs.xkcd.com/comics/barrel_cropped_(1).jpg'
p55
F23.703557794116044
sS'http://crfh.net/d/19990113.html'
p56
F26.870710854555288
sS'http://crfh.net/d/19990104.html'
p57
F28.871067877539062
sS'http://imgs.xkcd.com/comics/blownapart_color.jpg'
p58
F26.53138150441485
sS'http://imgs.xkcd.com/comics/fourier.jpg'
p59
F22.96394628337001
sS'http://crfh.net/d/19990107.html'
p60
F33.76049855814265
sS'http://imgs.xkcd.com/comics/irony_color.jpg'
p61
F31.136281938234383
sS'http://crfh.net/d/19990108.html'
p62
F33.9368896867072
sS'http://sheldoncomics.com/archive/011214.html'
p63
F29.624871837696812
sS'http://questionablecontent.net/view.php?comic=1'
p64
F99.19919439501552
sS'http://questionablecontent.net/view.php?comic=2'
p65
F155.92808555703905
sS'http://sheldoncomics.com/archive/011211.html'
p66
F31.483598961946544
sS'http://imgs.xkcd.com/comics/pi.jpg'
p67
F39.69597590275248
sS'http://nukees.com/d/19970123.html'
p68
F23.766224791473924
sS'http://imgs.xkcd.com/comics/red_spiders_small.jpg'
p69
F18.82811129022937
sS'http://www.goats.com/archive/000106.html'
p70
F26.291324088924455
sS'http://dieselsweeties.com/archive.php?s=3'
p71
F24.12481695739014
sS'http://dieselsweeties.com/archive.php?s=2'
p72
F20.109700516962477
sS'http://imgs.xkcd.com/comics/barrel_mommies.jpg'
p73
F15.283146632401413
sS'http://dieselsweeties.com/archive.php?s=6'
p74
F25.466449921598873
sS'http://dieselsweeties.com/archive.php?s=5'
p75
F25.19730963344602
sS'http://dieselsweeties.com/archive.php?s=4'
p76
F20.292946422539956
sS'http://crfh.net/d/19990112.html'
p77
F20.510059294359635
sS'http://nukees.com/d/19970211.html'
p78
F21.62464713208818
sS'http://sheldoncomics.com/archive/011205.html'
p79
F28.432261860143722
sS'http://imgs.xkcd.com/comics/tree_cropped_(1).jpg'
p80
F25.333062238633147
sS'http://imgs.xkcd.com/comics/just_alerting_you.jpg'
p81
F30.19062530665338
sS'http://sheldoncomics.com/archive/011215.html'
p82
F30.349756965809743
sS'http://dieselsweeties.com/archive.php?s=1'
p83
F16.620144319084304
sS'http://imgs.xkcd.com/comics/copyright.jpg'
p84
F34.67333746188293
sS'http://nukees.com/d/19970130.html'
p85
F29.25787256821178
sS'http://imgs.xkcd.com/comics/kepler.jpg'
p86
F23.296178891781526
sS'http://sheldoncomics.com/archive/011213.html'
p87
F21.154651948553777
sS'http://www.gpf-comics.com/d/19981104.html'
p88
F26.96448970134653
sS'http://questionablecontent.net/view.php?comic=001'
p89
F93.31511156890961
sS'http://nukees.com/d/19970204.html'
p90
F26.78488721044316
sS'http://nukees.com/d/19970203.html'
p91
F28.82448504215703
sS'http://www.gpf-comics.com/d/19981103.html'
p92
F29.40035909752809
sS'http://www.goats.com/archive/000112.html'
p93
F26.760111082056778
sS'http://imgs.xkcd.com/comics/elefino.jpg'
p94
F25.084418243356776
sS'http://www.goats.com/archive/000103.html'
p95
F29.64773400720492
sS'http://imgs.xkcd.com/comics/snapple.jpg'
p96
F25.251348614611157
sS'http://dieselsweeties.com/archive.php?s=01'
p97
F8.011494252873566
sS'http://sheldoncomics.com/archive/011212.html'
p98
F41.51847602249035
sS'http://imgs.xkcd.com/comics/t-shirts.jpg'
p99
F32.753646518083
sS'http://crfh.net/d/19990115.html'
p100
F27.743122373434876
sS'http://questionablecontent.net/view.php?comic=2#'
p101
F152.22879276050645
sS'http://nukees.com/d/19970214.html'
p102
F30.619004795002752
sS'http://crfh.net/d/19990105.html'
p103
F29.201766222911445
sS'http://imgs.xkcd.com/comics/hitler.jpg'
p104
F27.209538808675592
sS'http://imgs.xkcd.com/comics/what_if.jpg'
p105
F27.536215928525426
sS'http://sheldoncomics.com/archive/011210.html'
p106
F33.38643921184203
sS'http://www.goats.com/archive/000104.html'
p107
F31.029803065815365
sS'http://dieselsweeties.com/archive.php/archive.php?s=2'
p108
F20.99860251551428
ssS'/home/naresh/cse592-project/trunk/comics/gpf.txt'
p109
(dp110
g3
F28.13901419297632
sg4
F23.881924113484466
sg5
F133.3793103905341
sg6
F16.22263576615208
sg7
F14.620964260221072
sg8
F19.485352151639212
sg9
F145.3004253664906
sg10
F25.99174264513366
sg11
F23.99941596284638
sg12
F24.776835691576878
sg13
F24.624094344432663
sg14
F27.39644829163361
sg15
F15.15394706405482
sg16
F24.813107273643976
sg17
F22.313017699345902
sg18
F22.313765010368794
sg19
F24.018489773359043
sg20
F27.31932613662753
sg21
F20.606214545724065
sg22
F23.38152293830473
sg23
F24.578713246357008
sg24
F21.16405518788822
sg25
F234.51058810595612
sg26
F124.33181059035708
sg27
F20.948854082408847
sg28
F26.052500666374957
sg29
F20.54131980421854
sg30
F17.51645955190117
sg31
F6.762551946254854
sg32
F12.104639941070035
sg33
F27.76252602165453
sg34
F21.903851091754554
sg35
F17.89423181692587
sg36
F22.116681399397127
sg37
F26.07348268192553
sg38
F33.8107019136753
sg39
F20.143231682591534
sg40
F19.3260421896372
sg41
F29.04545018484597
sg42
F29.235637903778105
sg43
F23.725329383615115
sg44
F16.637956142060286
sg45
F35.94697325223497
sg46
F28.49374320782563
sg47
F26.83623792603603
sg48
F19.57796041057116
sg49
F15.861418053059472
sg50
F23.605962856233464
sg51
F26.30575732356903
sg52
F15.537132012693045
sg53
F22.15289291832128
sg54
F34.21228505193806
sg55
F29.382194901176952
sg56
F19.524324692352412
sg57
F29.029971265015796
sg58
F15.25895604007566
sg59
F16.896768775546864
sg60
F28.54529588587237
sg61
F24.136526066922784
sg62
F30.466724128904293
sg63
F32.773249512035854
sg64
F22.016873208963627
sg65
F19.72556500319426
sg66
F20.93040900229938
sg67
F9.690145875772625
sg68
F19.6917613502838
sg69
F19.2915705894898
sg70
F22.85095038274425
sg71
F24.796969741065723
sg72
F20.1986327000729
sg73
F25.829999617729072
sg74
F30.85701934458569
sg75
F24.31431403049831
sg76
F21.79188827844383
sg77
F12.7555556795859
sg78
F17.48711676398395
sg79
F21.550610872777348
sg80
F19.782314312289255
sg81
F29.045628857427715
sg82
F21.73759185578539
sg83
F16.586282735269887
sg84
F18.862499999685603
sg85
F22.34177100060245
sg86
F18.541822947363958
sg87
F14.963992499630669
sg88
F156.36867895536685
sg89
F23.627983698270185
sg90
F22.966074244230448
sg91
F24.02632622361444
sg92
F126.93446921434834
sg93
F24.736313290293438
sg94
F16.494356718336512
sg95
F32.02292599289938
sg96
F31.99841654155691
sg97
F4.938388625592416
sg98
F20.21193938493224
sg99
F24.226275738198765
sg100
F19.84962947778831
sg101
F21.570911557196553
sg102
F28.804077885088198
sg103
F24.61887681513645
sg104
F32.471291604847096
sg105
F29.440820493191683
sg106
F25.28287466856369
sg107
F27.120641023847796
sg108
F21.771138683020517
ssS'/home/naresh/cse592-project/trunk/comics/dieselsweeties.txt'
p111
(dp112
g3
F16.601999435961545
sg4
F20.5125535457107
sg5
F10.745252343426566
sg6
F98.60059784884194
sg7
F17.878795918590633
sg8
F10.824127503837547
sg9
F29.337701211243495
sg10
F18.287073767141063
sg11
F15.102303810286008
sg12
F20.97594657096162
sg13
F21.19465661199598
sg14
F17.815800976663365
sg15
F8.13199580631999
sg16
F21.105660416159512
sg17
F16.82473671297602
sg18
F23.878879448124707
sg19
F19.447174091210837
sg20
F18.00883015603767
sg21
F17.166136593508767
sg22
F17.811563650771266
sg23
F21.331832604504637
sg24
F17.98659192810669
sg25
F15.758884500881893
sg26
F19.23392862758732
sg27
F14.353757384880037
sg28
F14.627580967473802
sg29
F8.567292875448782
sg30
F91.06131276062693
sg31
F6.350176119697208
sg32
F12.05043879795679
sg33
F21.711162248332045
sg34
F17.818080177797498
sg35
F13.30326041709873
sg36
F19.126030573173203
sg37
F18.917655723021245
sg38
F21.268262942188734
sg39
F17.985459763657126
sg40
F17.234884398731136
sg41
F17.32826743149057
sg42
F16.872252744025673
sg43
F19.06050175864565
sg44
F17.9731490524979
sg45
F29.49632480003311
sg46
F16.41425707868627
sg47
F18.69704896913492
sg48
F13.98358931104052
sg49
F9.481527462667348
sg50
F18.710170743433675
sg51
F16.89681553788389
sg52
F16.53025985652433
sg53
F14.707702753756198
sg54
F21.102718854697272
sg55
F17.09428127270032
sg56
F16.777333344973933
sg57
F18.804019054521284
sg58
F13.443223018045762
sg59
F13.947930370427233
sg60
F22.486370110063184
sg61
F20.507931715339428
sg62
F16.925692083771104
sg63
F16.787845184791035
sg64
F18.72714040229718
sg65
F17.418832835589036
sg66
F14.120742293229647
sg67
F11.224492618234576
sg68
F21.160844648460753
sg69
F13.301937480735626
sg70
F15.047645501643071
sg71
F119.81775181079003
sg72
F105.19401370184916
sg73
F18.528605338487118
sg74
F152.9285096087618
sg75
F180.49841346241723
sg76
F123.65139383127529
sg77
F10.814937593310033
sg78
F16.7383682971265
sg79
F16.892786590254378
sg80
F17.83623043656981
sg81
F25.698796611194627
sg82
F17.43951496535044
sg83
F96.82722239749891
sg84
F18.423854041501418
sg85
F15.342589631751787
sg86
F10.702752120074894
sg87
F14.178656678166611
sg88
F18.13876857341554
sg89
F20.319402853175244
sg90
F19.01720010165959
sg91
F13.85466498181068
sg92
F17.72393892101813
sg93
F20.164937015133816
sg94
F15.510250541868395
sg95
F18.138873091015576
sg96
F15.33028803355318
sg97
F3.805194805194805
sg98
F13.662929671237183
sg99
F23.689576527576648
sg100
F12.210303571564861
sg101
F19.56776635944198
sg102
F18.714321554199692
sg103
F17.74023583900107
sg104
F23.321524137067794
sg105
F21.76374086014453
sg106
F25.74401081547993
sg107
F21.82802066928648
sg108
F107.77457748254373
ssS'/home/naresh/cse592-project/trunk/comics/goats.txt'
p113
(dp114
g3
F39.42616144381219
sg4
F23.966687300771756
sg5
F11.31138285575968
sg6
F25.942104143838417
sg7
F16.253161281720217
sg8
F282.7091831670247
sg9
F36.95407227871643
sg10
F24.005804937865555
sg11
F17.489939220467267
sg12
F18.91623796141853
sg13
F24.891397985966968
sg14
F22.57224751142458
sg15
F14.981524401568814
sg16
F24.241348770045622
sg17
F24.365121554011058
sg18
F177.56703296746298
sg19
F24.03978012458044
sg20
F17.976640352027207
sg21
F14.236160535726377
sg22
F22.83155997299619
sg23
F43.18202828806134
sg24
F28.39428967531032
sg25
F18.728280411961844
sg26
F24.55387011299799
sg27
F189.7133093174292
sg28
F26.565399162491005
sg29
F13.967222686153137
sg30
F29.570035638484732
sg31
F5.345586453951862
sg32
F13.556811260887494
sg33
F33.681902757190166
sg34
F16.569528655950997
sg35
F18.390800132478752
sg36
F26.417066918663842
sg37
F25.186488923532192
sg38
F19.76244308134825
sg39
F30.780174175616125
sg40
F16.595683363102385
sg41
F16.5615779818252
sg42
F24.922516223517015
sg43
F17.599078663144862
sg44
F17.445377249552024
sg45
F43.39076301510674
sg46
F28.51000133360169
sg47
F15.602882870664516
sg48
F21.83974588483233
sg49
F18.236279531517983
sg50
F23.596844784651967
sg51
F136.55154809785918
sg52
F14.43373501644797
sg53
F228.66174337243606
sg54
F208.10577997029444
sg55
F25.42822701590456
sg56
F19.80387526143995
sg57
F31.325795346804945
sg58
F12.550120571920292
sg59
F20.913610954264342
sg60
F32.155151709759544
sg61
F20.690098058324047
sg62
F27.904405629361626
sg63
F46.64757395995588
sg64
F22.236109130344612
sg65
F27.051436292160822
sg66
F58.900110765984536
sg67
F11.132612931004573
sg68
F23.516862652437407
sg69
F18.54701131007606
sg70
F199.19289708854336
sg71
F26.770548562171463
sg72
F19.28683047372881
sg73
F17.014236492365416
sg74
F33.06186250419077
sg75
F24.958740294299037
sg76
F23.68525910863864
sg77
F16.114160302054703
sg78
F17.093856160794093
sg79
F37.14084360437977
sg80
F18.353457815686777
sg81
F26.310524564187613
sg82
F35.036836399500636
sg83
F30.6173838548676
sg84
F14.625619665234593
sg85
F26.61954254882301
sg86
F15.191383027001214
sg87
F30.091187633545726
sg88
F24.6758043908873
sg89
F23.796176405884196
sg90
F21.683435151727092
sg91
F15.922724326140322
sg92
F34.34973612583182
sg93
F181.19057555413787
sg94
F18.847650097660875
sg95
F214.04809432681827
sg96
F29.700554909321333
sg97
F59.95996506839574
sg98
F49.91838112371242
sg99
F39.94814770990776
sg100
F30.738546780379576
sg101
F30.877440538404528
sg102
F27.785227098327752
sg103
F32.61852963057087
sg104
F26.883286228061507
sg105
F27.506609992323625
sg106
F32.55059770731936
sg107
F188.91619990790554
sg108
F22.17868183264942
ssS'/home/naresh/cse592-project/trunk/comics/collegeroomiesfromhell.txt'
p115
(dp116
g3
F230.7541043959087
sg4
F25.97387946807258
sg5
F14.813197562707078
sg6
F26.3723523132577
sg7
F9.67784590337192
sg8
F23.26960040931956
sg9
F40.05236191366753
sg10
F22.87236184498811
sg11
F23.11390700041494
sg12
F21.575513861900525
sg13
F26.95415287231896
sg14
F27.584432133875847
sg15
F13.493303004192587
sg16
F26.982284096895864
sg17
F34.46616281564505
sg18
F41.01655211508768
sg19
F28.816464845491492
sg20
F21.544090654290272
sg21
F25.999577953280905
sg22
F34.83841774732622
sg23
F178.73411156855002
sg24
F24.990611624279115
sg25
F21.064310968844232
sg26
F37.56133486570584
sg27
F29.574422821234016
sg28
F26.308902094035624
sg29
F19.428066477019527
sg30
F29.8560265656025
sg31
F5.680935995988958
sg32
F14.210698952130418
sg33
F32.77720013576847
sg34
F28.136878723399054
sg35
F22.223051902099055
sg36
F24.045402759128706
sg37
F32.70582723161678
sg38
F30.59769185900872
sg39
F37.06065506767347
sg40
F28.821033140414805
sg41
F21.79066801535454
sg42
F42.72207880427119
sg43
F23.842396574759178
sg44
F24.930618491336634
sg45
F49.583660813943965
sg46
F38.2048063666114
sg47
F29.087655576219145
sg48
F28.99820591655219
sg49
F18.40001098457735
sg50
F197.220160894932
sg51
F32.71938271131159
sg52
F21.346056095868995
sg53
F29.861526285504414
sg54
F27.986998360365206
sg55
F31.03869490312027
sg56
F228.07948359057525
sg57
F217.05631594037158
sg58
F26.999771134884654
sg59
F22.81298265405765
sg60
F202.17197676653302
sg61
F24.138469664888603
sg62
F209.7083672090432
sg63
F26.494789266584977
sg64
F25.503232963799594
sg65
F36.26428646406402
sg66
F19.683545357171006
sg67
F8.737280212674548
sg68
F36.676825353206034
sg69
F26.241625568371525
sg70
F26.176998453039793
sg71
F43.70446639691381
sg72
F29.668990659058718
sg73
F16.970385349295924
sg74
F38.68781356900556
sg75
F27.51579640400914
sg76
F36.25712540135163
sg77
F265.35445288906334
sg78
F26.19688982412238
sg79
F24.69528085708307
sg80
F21.128736285586236
sg81
F36.181765845509815
sg82
F32.03989871319551
sg83
F30.935738876225937
sg84
F16.302736752931104
sg85
F20.479761153645942
sg86
F35.68448659948804
sg87
F28.582304690410055
sg88
F19.383855025281594
sg89
F25.76256649502493
sg90
F23.85285925663875
sg91
F20.573106361836448
sg92
F30.689835727551007
sg93
F34.59084785627632
sg94
F22.798772565127134
sg95
F41.89869452974013
sg96
F27.45818953464896
sg97
F3.854430379746836
sg98
F26.402468628626536
sg99
F52.243082816445636
sg100
F161.8222012678091
sg101
F41.11415044128559
sg102
F31.157408715956766
sg103
F186.7024376008606
sg104
F34.82250375677191
sg105
F41.05214486231604
sg106
F24.738997493656754
sg107
F38.381950921494386
sg108
F35.467114287941946
ssS'/home/naresh/cse592-project/trunk/comics/sheldon.txt'
p117
(dp118
g3
F22.706678693710803
sg4
F27.376591976431445
sg5
F9.352759608823074
sg6
F16.042310791921665
sg7
F18.149948871806995
sg8
F21.408596126924575
sg9
F34.97240852367401
sg10
F25.65570001893198
sg11
F19.68181733730252
sg12
F20.795954909164656
sg13
F28.477732552272112
sg14
F20.052761107050845
sg15
F148.45525357738794
sg16
F28.135818646808353
sg17
F18.2309473937639
sg18
F31.394302502484344
sg19
F27.592544493491886
sg20
F25.599981464335013
sg21
F17.980592285376268
sg22
F22.840912264814662
sg23
F38.92884360771966
sg24
F19.857900489874222
sg25
F26.230101811027346
sg26
F25.67008657860144
sg27
F17.240474663191478
sg28
F184.6434390548614
sg29
F177.11650910344113
sg30
F17.668290193462333
sg31
F5.5153102739312985
sg32
F8.08462084312794
sg33
F24.464300130844745
sg34
F17.48903114063737
sg35
F20.332690091768256
sg36
F24.744688829770034
sg37
F22.480782359193732
sg38
F29.30601409988564
sg39
F29.05637879457684
sg40
F20.398542280919393
sg41
F24.82128302005653
sg42
F17.441831019529584
sg43
F19.093415143768304
sg44
F35.739202379892376
sg45
F27.228893254284337
sg46
F20.061182338006624
sg47
F17.0333067982338
sg48
F19.099190597905608
sg49
F10.792509955048303
sg50
F24.431008592061062
sg51
F28.845255787741
sg52
F18.031894988280584
sg53
F29.27998371119973
sg54
F36.34621998737413
sg55
F28.01810694534541
sg56
F18.91908801767882
sg57
F27.43490774980237
sg58
F16.059589798195198
sg59
F14.961436283704264
sg60
F25.920606657002672
sg61
F21.068765612000497
sg62
F28.34900479833286
sg63
F130.6452567471662
sg64
F24.384230532475303
sg65
F28.76477997989243
sg66
F85.80575561017278
sg67
F7.678629903492368
sg68
F29.203410089751422
sg69
F15.493471417664017
sg70
F18.346650464947132
sg71
F28.974177985399184
sg72
F19.387294763722576
sg73
F24.27363000683014
sg74
F23.03574185701859
sg75
F13.325401291666932
sg76
F21.973199400820135
sg77
F10.681389083482937
sg78
F19.872186206050515
sg79
F162.97517354652527
sg80
F13.824998687881585
sg81
F27.975215481565506
sg82
F186.76365612339544
sg83
F18.482604283671176
sg84
F15.257056251115243
sg85
F20.89006754049166
sg86
F21.249026536675736
sg87
F170.38660878634872
sg88
F23.40584766726865
sg89
F27.004232863593565
sg90
F23.004698848820347
sg91
F21.8938829604568
sg92
F26.883051621427306
sg93
F24.35200501508038
sg94
F17.28627363137541
sg95
F33.81649231926961
sg96
F26.406953782582445
sg97
F3.592436974789916
sg98
F115.0387393626729
sg99
F27.832578844673286
sg100
F13.910207955542656
sg101
F32.226396663791334
sg102
F32.04457881300006
sg103
F22.71147712812296
sg104
F26.140193787261985
sg105
F32.77056583683331
sg106
F151.9293002010454
sg107
F27.95778726274535
sg108
F21.738962955077284
ssS'/home/naresh/cse592-project/trunk/comics/nukees.txt'
p119
(dp120
g3
F35.090352815003335
sg4
F37.057235807148665
sg5
F13.45299293514524
sg6
F40.74456199625471
sg7
F16.37939352697209
sg8
F18.58060218142187
sg9
F46.74668350487774
sg10
F27.09772844245133
sg11
F27.94369551134078
sg12
F21.393102786494037
sg13
F38.756237047609716
sg14
F23.597410042947896
sg15
F14.469143556945887
sg16
F38.92054476723035
sg17
F30.94004856639031
sg18
F36.85457109106753
sg19
F37.19542180231502
sg20
F28.6217054173905
sg21
F243.39135315851325
sg22
F38.538124070979556
sg23
F51.17066713255827
sg24
F28.431414150790875
sg25
F29.90098195992809
sg26
F34.622570019942835
sg27
F30.31702340771243
sg28
F24.642941689065868
sg29
F30.03172737522478
sg30
F47.57879471244145
sg31
F5.456381497976537
sg32
F29.048850917395974
sg33
F40.55928146374739
sg34
F237.22908139443422
sg35
F239.77712220548344
sg36
F34.53052425665166
sg37
F190.1286372296572
sg38
F35.54775672402338
sg39
F43.08698194244234
sg40
F25.34278910244073
sg41
F27.816481721919278
sg42
F36.65157453760988
sg43
F25.148747286397278
sg44
F42.894619234420006
sg45
F69.34790835539734
sg46
F33.68760242716431
sg47
F37.539364951498875
sg48
F28.724697907765258
sg49
F22.79433043501584
sg50
F30.217910320765483
sg51
F39.33771797933396
sg52
F13.15446856334462
sg53
F37.2174892705936
sg54
F43.55377828824136
sg55
F37.440969821380946
sg56
F30.589963930529308
sg57
F52.52917295524904
sg58
F16.0523391308666
sg59
F31.675655465510026
sg60
F50.45373506660266
sg61
F26.23353505290497
sg62
F48.68700505465295
sg63
F39.28561384770271
sg64
F32.758975141542194
sg65
F38.1525815235623
sg66
F27.650541173201077
sg67
F9.248302153419512
sg68
F234.61994951308682
sg69
F24.980502682267762
sg70
F37.68789041735374
sg71
F59.09309704056467
sg72
F24.66516756029208
sg73
F25.330278304618506
sg74
F21.258216784932397
sg75
F20.026967830914437
sg76
F46.22946093895088
sg77
F23.29961011864879
sg78
F223.3147215396166
sg79
F41.27672677077091
sg80
F14.328342661433515
sg81
F36.098127236186855
sg82
F33.22372869421071
sg83
F45.601054996069095
sg84
F37.72517546880984
sg85
F286.66607468469664
sg86
F28.706858625487282
sg87
F29.559156777811715
sg88
F27.499309700558822
sg89
F36.94072452035515
sg90
F242.2232052517409
sg91
F337.3528452742224
sg92
F36.527087925783434
sg93
F37.542516172206845
sg94
F21.527197640710877
sg95
F31.039118399934345
sg96
F23.77844332975092
sg97
F3.683333333333334
sg98
F26.5446915458839
sg99
F62.17749767623001
sg100
F37.918396073600434
sg101
F48.39408195267867
sg102
F239.48713718577415
sg103
F46.31350796373942
sg104
F40.92173907819692
sg105
F37.03780452593133
sg106
F34.03591482484388
sg107
F38.89742500269527
sg108
F27.983869879898833
ssS'/home/naresh/cse592-project/trunk/comics/xkcd_comic_list.txt'
p121
(dp122
g3
F54.016536674307744
sg4
F59.8809913114783
sg5
F30.275904164359638
sg6
F53.22328807400723
sg7
F409.38105350960404
sg8
F42.50634336799102
sg9
F55.71233698122387
sg10
F426.64607119810006
sg11
F469.99120583196253
sg12
F275.15338311123185
sg13
F63.08917875727553
sg14
F254.34367869641292
sg15
F20.8011631377851
sg16
F63.19776448096962
sg17
F306.8036421699546
sg18
F62.99762654510937
sg19
F66.55397239241671
sg20
F320.8654220497
sg21
F24.354838228459148
sg22
F72.13683141364348
sg23
F67.24852795102542
sg24
F436.74932317496865
sg25
F48.14712310164036
sg26
F45.309356607927306
sg27
F63.10889119409577
sg28
F34.62969075441889
sg29
F35.843689994122535
sg30
F62.82153630066293
sg31
F1215.3845129209985
sg32
F374.03089781931754
sg33
F344.35856212992707
sg34
F37.686129599967295
sg35
F52.049585750341514
sg36
F59.89738436816701
sg37
F52.16866890614818
sg38
F311.41949933806075
sg39
F70.65597380241891
sg40
F334.6194927606168
sg41
F59.56561497406534
sg42
F45.844340572417394
sg43
F36.4417464038864
sg44
F68.13082391323192
sg45
F105.53578776464273
sg46
F54.768575008109856
sg47
F36.88062266812666
sg48
F40.97879475792207
sg49
F27.70667894590146
sg50
F53.39389939198371
sg51
F50.813256101463836
sg52
F274.4823618030083
sg53
F140.94351747103477
sg54
F56.56860641996485
sg55
F297.9538817910728
sg56
F77.19615307208893
sg57
F58.97407491503652
sg58
F370.1398039547384
sg59
F465.65203056282553
sg60
F96.35068425344636
sg61
F505.67482718812823
sg62
F62.53134236323348
sg63
F42.65716151911988
sg64
F71.16429108328407
sg65
F74.51350469273939
sg66
F35.54229837339083
sg67
F787.7699896598718
sg68
F71.40151157421698
sg69
F518.1367808487325
sg70
F53.74730935460336
sg71
F100.87153622116234
sg72
F58.772741096155436
sg73
F293.29610364504964
sg74
F74.0031094480424
sg75
F53.44219221592654
sg76
F68.15553592554014
sg77
F53.28899194196469
sg78
F62.11521013545592
sg79
F40.41350355125103
sg80
F439.5663013931563
sg81
F363.54338097845397
sg82
F62.2109871443226
sg83
F81.47416539381103
sg84
F505.4771273221293
sg85
F44.63558878650798
sg86
F467.69355448686906
sg87
F32.89956208308011
sg88
F42.64900285457628
sg89
F60.98202069904282
sg90
F47.104310604961775
sg91
F39.28630432412698
sg92
F46.684496772806675
sg93
F56.432691019266926
sg94
F325.8403631291541
sg95
F68.06263685951797
sg96
F409.0367140923243
sg97
F117.15160859077042
sg98
F47.66121550602746
sg99
F494.3631085931858
sg100
F42.18835536737625
sg101
F75.28520146854778
sg102
F69.13752714537446
sg103
F71.44745041398714
sg104
F330.3462775687739
sg105
F458.30958907657777
sg106
F43.99863802824343
sg107
F64.12894580387193
sg108
F72.01587854435824
ssS'/home/naresh/cse592-project/trunk/comics/cnh.txt'
p123
(dp124
g3
F48.14684948065282
sg4
F28.422089293827934
sg5
F14.308392194652988
sg6
F51.88696108176872
sg7
F13.210822444013692
sg8
F26.285106540845874
sg9
F29.066790514313
sg10
F29.401893409940122
sg11
F27.141459172978944
sg12
F20.446188006915527
sg13
F29.41914144084281
sg14
F34.296024690221586
sg15
F14.058981412566805
sg16
F29.142335228404686
sg17
F28.041007609032597
sg18
F47.69243680220462
sg19
F30.47500338757044
sg20
F21.23655096265734
sg21
F23.04275423412979
sg22
F173.29267658251055
sg23
F43.51262142819624
sg24
F20.105232329492996
sg25
F29.922752619811206
sg26
F36.46842281858161
sg27
F31.850800789759305
sg28
F28.74414535510349
sg29
F21.86342438669651
sg30
F60.48883234117583
sg31
F7.90680715001518
sg32
F15.178388536124677
sg33
F35.70504459410843
sg34
F39.66968209345892
sg35
F31.468882949033887
sg36
F25.876319600855332
sg37
F41.69064684229075
sg38
F30.295757354630222
sg39
F36.42743813499796
sg40
F20.510002409139474
sg41
F196.646942870792
sg42
F142.34791156657172
sg43
F223.56419206974653
sg44
F139.39804175963482
sg45
F137.707449667594
sg46
F189.0453242607993
sg47
F197.97187829111675
sg48
F158.3044206711534
sg49
F283.76475139832473
sg50
F32.342173415910956
sg51
F28.24387106545362
sg52
F18.789617602532424
sg53
F49.436871464711054
sg54
F30.34502755940235
sg55
F24.548496144621197
sg56
F38.188337690410826
sg57
F42.147052591660085
sg58
F19.588472444413107
sg59
F23.051183086818497
sg60
F46.32025464168358
sg61
F21.796571788350036
sg62
F35.58651239953528
sg63
F35.78499010936077
sg64
F25.65187220658154
sg65
F33.625210040523925
sg66
F26.85349579329672
sg67
F15.653514907722064
sg68
F35.1050579453117
sg69
F30.301930373398896
sg70
F31.18374558224083
sg71
F32.629857635060596
sg72
F23.961447905640913
sg73
F17.857795775655816
sg74
F47.7374045550554
sg75
F26.09702017545313
sg76
F26.908146330813928
sg77
F16.40805120089763
sg78
F28.847806899495772
sg79
F31.462894896627933
sg80
F33.21958052333674
sg81
F32.56308303838117
sg82
F28.99937818966064
sg83
F54.267017375743066
sg84
F20.612349701368366
sg85
F35.93936364109503
sg86
F18.227796350464782
sg87
F37.04563350216667
sg88
F33.112535579100374
sg89
F28.386753691078546
sg90
F32.142149615285305
sg91
F23.27665253290291
sg92
F37.50820048073691
sg93
F34.105199022953116
sg94
F21.650675930453502
sg95
F41.623944656285154
sg96
F25.851127193627953
sg97
F4.8138801261829665
sg98
F43.64020620359328
sg99
F47.15308273746637
sg100
F27.642790379936482
sg101
F40.70858434274729
sg102
F34.25086967939111
sg103
F42.217387264667884
sg104
F39.59406565920608
sg105
F36.28377396361854
sg106
F28.69004975969061
sg107
F37.226461458578235
sg108
F26.689058972598097
ss.